target datalayout = "e-m:e-p270:32:32-p271:32:32-p272:64:64-i64:64-i128:128-f80:128-n8:16:32:64-S128"
target triple = "x86_64-pc-linux-gnu"

%"class.open3d::core::TensorKey" = type { %"class.std::shared_ptr" }
%"class.std::shared_ptr" = type { %"class.std::__shared_ptr" }
%"class.std::__shared_ptr" = type { ptr, %"class.std::__shared_count" }
%"class.std::__shared_count" = type { ptr }
%"class.std::allocator.3" = type { i8 }
%"struct.std::_Sp_alloc_shared_tag" = type { ptr }
%"class.std::shared_ptr.20" = type { %"class.std::__shared_ptr.21" }
%"class.std::__shared_ptr.21" = type { ptr, %"class.std::__shared_count" }

@_ZN6open3d4core9TensorKeyC1ERKSt10shared_ptrINS1_4ImplEE = unnamed_addr alias void (ptr, ptr), ptr @_ZN6open3d4core9TensorKeyC2ERKSt10shared_ptrINS1_4ImplEE

; Function Attrs: mustprogress nounwind ssp uwtable
define linkonce_odr void @_ZNSt12__shared_ptrIN6open3d4core9TensorKey15IndexTensorImplELN9__gnu_cxx12_Lock_policyE2EE31_M_enable_shared_from_this_withIS3_S3_EENSt9enable_ifIXntsr15__has_esft_baseIT0_EE5valueEvE4typeEPT_(ptr noundef nonnull align 8 dereferenceable(16) %0, ptr noundef %1) #0 comdat align 2 {
  %3 = alloca ptr, align 8
  %4 = alloca ptr, align 8
  store ptr %0, ptr %3, align 8, !tbaa !206
  store ptr %1, ptr %4, align 8, !tbaa !215
  ret void
}

; Function Attrs: mustprogress nounwind ssp uwtable
define linkonce_odr void @_ZNSt14__shared_countILN9__gnu_cxx12_Lock_policyE2EE7_M_swapERS2_(ptr noundef nonnull align 8 dereferenceable(8) %0, ptr noundef nonnull align 8 dereferenceable(8) %1) #0 comdat align 2 {
  %3 = alloca ptr, align 8
  %4 = alloca ptr, align 8
  %5 = alloca ptr, align 8
  store ptr %0, ptr %3, align 8, !tbaa !18
  store ptr %1, ptr %4, align 8, !tbaa !18
  %6 = load ptr, ptr %3, align 8
  call void @llvm.lifetime.start.p0(i64 8, ptr %5) #20
  %7 = load ptr, ptr %4, align 8, !tbaa !18
  %8 = getelementptr inbounds nuw %"class.std::__shared_count", ptr %7, i32 0, i32 0
  %9 = load ptr, ptr %8, align 8, !tbaa !20
  store ptr %9, ptr %5, align 8, !tbaa !21
  %10 = getelementptr inbounds nuw %"class.std::__shared_count", ptr %6, i32 0, i32 0
  %11 = load ptr, ptr %10, align 8, !tbaa !20
  %12 = load ptr, ptr %4, align 8, !tbaa !18
  %13 = getelementptr inbounds nuw %"class.std::__shared_count", ptr %12, i32 0, i32 0
  store ptr %11, ptr %13, align 8, !tbaa !20
  %14 = load ptr, ptr %5, align 8, !tbaa !21
  %15 = getelementptr inbounds nuw %"class.std::__shared_count", ptr %6, i32 0, i32 0
  store ptr %14, ptr %15, align 8, !tbaa !20
  call void @llvm.lifetime.end.p0(i64 8, ptr %5) #20
  ret void
}

; Function Attrs: mustprogress nounwind ssp uwtable
define linkonce_odr void @_ZNSt14__shared_countILN9__gnu_cxx12_Lock_policyE2EEC2Ev(ptr noundef nonnull align 8 dereferenceable(8) %0) unnamed_addr #0 comdat align 2 {
  %2 = alloca ptr, align 8
  store ptr %0, ptr %2, align 8, !tbaa !18
  %3 = load ptr, ptr %2, align 8
  %4 = getelementptr inbounds nuw %"class.std::__shared_count", ptr %3, i32 0, i32 0
  store ptr null, ptr %4, align 8, !tbaa !20
  ret void
}

; Function Attrs: mustprogress ssp uwtable
define linkonce_odr void @_ZNSt12__shared_ptrIN6open3d4core9TensorKey15IndexTensorImplELN9__gnu_cxx12_Lock_policyE2EEC2ISaIvEJRKNS1_6TensorEEEESt20_Sp_alloc_shared_tagIT_EDpOT0_(ptr noundef nonnull align 8 dereferenceable(16) %0, ptr %1, ptr noundef nonnull align 8 dereferenceable(160) %2) unnamed_addr #1 comdat align 2 {
  %4 = alloca %"struct.std::_Sp_alloc_shared_tag", align 8
  %5 = alloca ptr, align 8
  %6 = alloca ptr, align 8
  %7 = alloca %"struct.std::_Sp_alloc_shared_tag", align 8
  %8 = getelementptr inbounds nuw %"struct.std::_Sp_alloc_shared_tag", ptr %4, i32 0, i32 0
  store ptr %1, ptr %8, align 8
  store ptr %0, ptr %5, align 8, !tbaa !206
  store ptr %2, ptr %6, align 8, !tbaa !202
  %9 = load ptr, ptr %5, align 8
  %10 = getelementptr inbounds nuw %"class.std::__shared_ptr.21", ptr %9, i32 0, i32 0
  store ptr null, ptr %10, align 8, !tbaa !208
  %11 = getelementptr inbounds nuw %"class.std::__shared_ptr.21", ptr %9, i32 0, i32 1
  %12 = getelementptr inbounds nuw %"class.std::__shared_ptr.21", ptr %9, i32 0, i32 0
  call void @llvm.memcpy.p0.p0.i64(ptr align 8 %7, ptr align 8 %4, i64 8, i1 false), !tbaa.struct !45
  %13 = load ptr, ptr %6, align 8, !tbaa !202
  %14 = getelementptr inbounds nuw %"struct.std::_Sp_alloc_shared_tag", ptr %7, i32 0, i32 0
  %15 = load ptr, ptr %14, align 8
  call void @_ZNSt14__shared_countILN9__gnu_cxx12_Lock_policyE2EEC2IN6open3d4core9TensorKey15IndexTensorImplESaIvEJRKNS5_6TensorEEEERPT_St20_Sp_alloc_shared_tagIT0_EDpOT1_(ptr noundef nonnull align 8 dereferenceable(8) %11, ptr noundef nonnull align 8 dereferenceable(8) %12, ptr %15, ptr noundef nonnull align 8 dereferenceable(160) %13)
  %16 = getelementptr inbounds nuw %"class.std::__shared_ptr.21", ptr %9, i32 0, i32 0
  %17 = load ptr, ptr %16, align 8, !tbaa !208
  call void @_ZNSt12__shared_ptrIN6open3d4core9TensorKey15IndexTensorImplELN9__gnu_cxx12_Lock_policyE2EE31_M_enable_shared_from_this_withIS3_S3_EENSt9enable_ifIXntsr15__has_esft_baseIT0_EE5valueEvE4typeEPT_(ptr noundef nonnull align 8 dereferenceable(16) %9, ptr noundef %17) #20
  ret void
}

; Function Attrs: mustprogress nounwind ssp uwtable
define linkonce_odr void @_ZNSt12__shared_ptrIN6open3d4core9TensorKey4ImplELN9__gnu_cxx12_Lock_policyE2EEC2INS2_15IndexTensorImplEvEEOS_IT_LS5_2EE(ptr noundef nonnull align 8 dereferenceable(16) %0, ptr noundef nonnull align 8 dereferenceable(16) %1) unnamed_addr #0 comdat align 2 {
  %3 = alloca ptr, align 8
  %4 = alloca ptr, align 8
  store ptr %0, ptr %3, align 8, !tbaa !11
  store ptr %1, ptr %4, align 8, !tbaa !206
  %5 = load ptr, ptr %3, align 8
  %6 = getelementptr inbounds nuw %"class.std::__shared_ptr", ptr %5, i32 0, i32 0
  %7 = load ptr, ptr %4, align 8, !tbaa !206
  %8 = getelementptr inbounds nuw %"class.std::__shared_ptr.21", ptr %7, i32 0, i32 0
  %9 = load ptr, ptr %8, align 8, !tbaa !208
  store ptr %9, ptr %6, align 8, !tbaa !13
  %10 = getelementptr inbounds nuw %"class.std::__shared_ptr", ptr %5, i32 0, i32 1
  call void @_ZNSt14__shared_countILN9__gnu_cxx12_Lock_policyE2EEC2Ev(ptr noundef nonnull align 8 dereferenceable(8) %10) #20
  %11 = getelementptr inbounds nuw %"class.std::__shared_ptr", ptr %5, i32 0, i32 1
  %12 = load ptr, ptr %4, align 8, !tbaa !206
  %13 = getelementptr inbounds nuw %"class.std::__shared_ptr.21", ptr %12, i32 0, i32 1
  call void @_ZNSt14__shared_countILN9__gnu_cxx12_Lock_policyE2EE7_M_swapERS2_(ptr noundef nonnull align 8 dereferenceable(8) %11, ptr noundef nonnull align 8 dereferenceable(8) %13) #20
  %14 = load ptr, ptr %4, align 8, !tbaa !206
  %15 = getelementptr inbounds nuw %"class.std::__shared_ptr.21", ptr %14, i32 0, i32 0
  store ptr null, ptr %15, align 8, !tbaa !208
  ret void
}

; Function Attrs: mustprogress ssp uwtable
define linkonce_odr void @_ZNSt10shared_ptrIN6open3d4core9TensorKey15IndexTensorImplEEC2ISaIvEJRKNS1_6TensorEEEESt20_Sp_alloc_shared_tagIT_EDpOT0_(ptr noundef nonnull align 8 dereferenceable(16) %0, ptr %1, ptr noundef nonnull align 8 dereferenceable(160) %2) unnamed_addr #1 comdat align 2 {
  %4 = alloca %"struct.std::_Sp_alloc_shared_tag", align 8
  %5 = alloca ptr, align 8
  %6 = alloca ptr, align 8
  %7 = alloca %"struct.std::_Sp_alloc_shared_tag", align 8
  %8 = getelementptr inbounds nuw %"struct.std::_Sp_alloc_shared_tag", ptr %4, i32 0, i32 0
  store ptr %1, ptr %8, align 8
  store ptr %0, ptr %5, align 8, !tbaa !204
  store ptr %2, ptr %6, align 8, !tbaa !202
  %9 = load ptr, ptr %5, align 8
  call void @llvm.memcpy.p0.p0.i64(ptr align 8 %7, ptr align 8 %4, i64 8, i1 false), !tbaa.struct !45
  %10 = load ptr, ptr %6, align 8, !tbaa !202
  %11 = getelementptr inbounds nuw %"struct.std::_Sp_alloc_shared_tag", ptr %7, i32 0, i32 0
  %12 = load ptr, ptr %11, align 8
  call void @_ZNSt12__shared_ptrIN6open3d4core9TensorKey15IndexTensorImplELN9__gnu_cxx12_Lock_policyE2EEC2ISaIvEJRKNS1_6TensorEEEESt20_Sp_alloc_shared_tagIT_EDpOT0_(ptr noundef nonnull align 8 dereferenceable(16) %9, ptr %12, ptr noundef nonnull align 8 dereferenceable(160) %10)
  ret void
}

; Function Attrs: mustprogress nounwind ssp uwtable
define linkonce_odr void @_ZNSt10shared_ptrIN6open3d4core9TensorKey4ImplEEC2INS2_15IndexTensorImplEvEEOS_IT_E(ptr noundef nonnull align 8 dereferenceable(16) %0, ptr noundef nonnull align 8 dereferenceable(16) %1) unnamed_addr #0 comdat align 2 {
  %3 = alloca ptr, align 8
  %4 = alloca ptr, align 8
  store ptr %0, ptr %3, align 8, !tbaa !9
  store ptr %1, ptr %4, align 8, !tbaa !204
  %5 = load ptr, ptr %3, align 8
  %6 = load ptr, ptr %4, align 8, !tbaa !204
  call void @_ZNSt12__shared_ptrIN6open3d4core9TensorKey4ImplELN9__gnu_cxx12_Lock_policyE2EEC2INS2_15IndexTensorImplEvEEOS_IT_LS5_2EE(ptr noundef nonnull align 8 dereferenceable(16) %5, ptr noundef nonnull align 8 dereferenceable(16) %6) #20
  ret void
}

; Function Attrs: inlinehint mustprogress ssp uwtable
define linkonce_odr void @_ZSt11make_sharedIN6open3d4core9TensorKey15IndexTensorImplEJRKNS1_6TensorEEESt10shared_ptrINSt9enable_ifIXntsr8is_arrayIT_EE5valueES9_E4typeEEDpOT0_(ptr dead_on_unwind noalias writable sret(%"class.std::shared_ptr.20") align 8 %0, ptr noundef nonnull align 8 dereferenceable(160) %1) #6 comdat {
  %3 = alloca ptr, align 8
  %4 = alloca ptr, align 8
  %5 = alloca %"class.std::allocator.3", align 1
  %6 = alloca %"struct.std::_Sp_alloc_shared_tag", align 8
  store ptr %0, ptr %3, align 8
  store ptr %1, ptr %4, align 8, !tbaa !202
  call void @llvm.lifetime.start.p0(i64 1, ptr %5) #20
  %7 = getelementptr inbounds nuw %"struct.std::_Sp_alloc_shared_tag", ptr %6, i32 0, i32 0
  store ptr %5, ptr %7, align 8, !tbaa !39
  %8 = load ptr, ptr %4, align 8, !tbaa !202
  %9 = getelementptr inbounds nuw %"struct.std::_Sp_alloc_shared_tag", ptr %6, i32 0, i32 0
  %10 = load ptr, ptr %9, align 8
  call void @_ZNSt10shared_ptrIN6open3d4core9TensorKey15IndexTensorImplEEC2ISaIvEJRKNS1_6TensorEEEESt20_Sp_alloc_shared_tagIT_EDpOT0_(ptr noundef nonnull align 8 dereferenceable(16) %0, ptr %10, ptr noundef nonnull align 8 dereferenceable(160) %8)
  call void @llvm.lifetime.end.p0(i64 1, ptr %5) #20
  ret void
}

; Function Attrs: mustprogress ssp uwtable
define void @_ZN6open3d4core9TensorKey11IndexTensorERKNS0_6TensorE(ptr dead_on_unwind noalias writable sret(%"class.open3d::core::TensorKey") align 8 %0, ptr noundef nonnull align 8 dereferenceable(160) %1) #1 align 2 personality ptr @__gxx_personality_v0 {
  %3 = alloca ptr, align 8
  %4 = alloca ptr, align 8
  %5 = alloca %"class.std::shared_ptr", align 8
  %6 = alloca %"class.std::shared_ptr.20", align 8
  %7 = alloca ptr, align 8
  %8 = alloca i32, align 4
  store ptr %0, ptr %3, align 8
  store ptr %1, ptr %4, align 8, !tbaa !202
  call void @llvm.lifetime.start.p0(i64 16, ptr %5) #20
  call void @llvm.lifetime.start.p0(i64 16, ptr %6) #20
  %9 = load ptr, ptr %4, align 8, !tbaa !202
  call void @_ZSt11make_sharedIN6open3d4core9TensorKey15IndexTensorImplEJRKNS1_6TensorEEESt10shared_ptrINSt9enable_ifIXntsr8is_arrayIT_EE5valueES9_E4typeEEDpOT0_(ptr dead_on_unwind writable sret(%"class.std::shared_ptr.20") align 8 %6, ptr noundef nonnull align 8 dereferenceable(160) %9)
  call void @_ZNSt10shared_ptrIN6open3d4core9TensorKey4ImplEEC2INS2_15IndexTensorImplEvEEOS_IT_E(ptr noundef nonnull align 8 dereferenceable(16) %5, ptr noundef nonnull align 8 dereferenceable(16) %6) #20
  invoke void @_ZN6open3d4core9TensorKeyC1ERKSt10shared_ptrINS1_4ImplEE(ptr noundef nonnull align 8 dereferenceable(16) %0, ptr noundef nonnull align 8 dereferenceable(16) %5)
          to label %10 unwind label %11

10:                                               ; preds = %2
  call void @_ZNSt12__shared_ptrIN6open3d4core9TensorKey4ImplELN9__gnu_cxx12_Lock_policyE2EED2Ev(ptr noundef nonnull align 8 dereferenceable(16) %5) #20
  call void @_ZNSt12__shared_ptrIN6open3d4core9TensorKey15IndexTensorImplELN9__gnu_cxx12_Lock_policyE2EED2Ev(ptr noundef nonnull align 8 dereferenceable(16) %6) #20
  call void @llvm.lifetime.end.p0(i64 16, ptr %6) #20
  call void @llvm.lifetime.end.p0(i64 16, ptr %5) #20
  ret void

11:                                               ; preds = %2
  %12 = landingpad { ptr, i32 }
          cleanup
  %13 = extractvalue { ptr, i32 } %12, 0
  store ptr %13, ptr %7, align 8
  %14 = extractvalue { ptr, i32 } %12, 1
  store i32 %14, ptr %8, align 4
  call void @_ZNSt12__shared_ptrIN6open3d4core9TensorKey4ImplELN9__gnu_cxx12_Lock_policyE2EED2Ev(ptr noundef nonnull align 8 dereferenceable(16) %5) #20
  call void @_ZNSt12__shared_ptrIN6open3d4core9TensorKey15IndexTensorImplELN9__gnu_cxx12_Lock_policyE2EED2Ev(ptr noundef nonnull align 8 dereferenceable(16) %6) #20
  call void @llvm.lifetime.end.p0(i64 16, ptr %6) #20
  call void @llvm.lifetime.end.p0(i64 16, ptr %5) #20
  br label %15

15:                                               ; preds = %11
  %16 = load ptr, ptr %7, align 8
  %17 = load i32, ptr %8, align 4
  %18 = insertvalue { ptr, i32 } poison, ptr %16, 0
  %19 = insertvalue { ptr, i32 } %18, i32 %17, 1
  resume { ptr, i32 } %19
}