; Function Attrs: mustprogress ssp uwtable
define void @_ZN6open3d4core9TensorKey11IndexTensorERKNS0_6TensorE(ptr dead_on_unwind noalias writable sret(%"class.open3d::core::TensorKey") align 8 %0, ptr noundef nonnull align 8 dereferenceable(160) %1) local_unnamed_addr #2 align 2 personality ptr @__gxx_personality_v0 {
  %3 = alloca %"class.std::allocator.3", align 1
  %4 = alloca %"class.std::shared_ptr", align 8
  %5 = alloca %"class.std::shared_ptr.20", align 8
  call void @llvm.lifetime.start.p0(i64 16, ptr nonnull %4) #21
  call void @llvm.lifetime.start.p0(i64 16, ptr nonnull %5) #21
  tail call void @llvm.experimental.noalias.scope.decl(metadata !75)
  call void @llvm.lifetime.start.p0(i64 1, ptr nonnull %3) #21, !noalias !75
  store ptr null, ptr %5, align 8, !tbaa !78, !alias.scope !75
  %6 = getelementptr inbounds nuw i8, ptr %5, i64 8
  call void @_ZNSt14__shared_countILN9__gnu_cxx12_Lock_policyE2EEC2IN6open3d4core9TensorKey15IndexTensorImplESaIvEJRKNS5_6TensorEEEERPT_St20_Sp_alloc_shared_tagIT0_EDpOT1_(ptr noundef nonnull align 8 dereferenceable(8) %6, ptr noundef nonnull align 8 dereferenceable(16) %5, ptr nonnull %3, ptr noundef nonnull align 8 dereferenceable(160) %1)
  call void @llvm.lifetime.end.p0(i64 1, ptr nonnull %3) #21, !noalias !75
  %7 = load ptr, ptr %5, align 8, !tbaa !78
  store ptr %7, ptr %4, align 8, !tbaa !4
  %8 = getelementptr inbounds nuw i8, ptr %4, i64 8
  %9 = load ptr, ptr %6, align 8, !tbaa !12
  store ptr null, ptr %6, align 8, !tbaa !12
  store ptr %9, ptr %8, align 8, !tbaa !12
  store ptr null, ptr %5, align 8, !tbaa !78
  invoke void @_ZN6open3d4core9TensorKeyC1ERKSt10shared_ptrINS1_4ImplEE(ptr noundef nonnull align 8 dereferenceable(16) %0, ptr noundef nonnull align 8 dereferenceable(16) %4)
          to label %10 unwind label %55

10:                                               ; preds = %2
  %11 = load ptr, ptr %8, align 8, !tbaa !12
  %.not.i.i = icmp eq ptr %11, null
  br i1 %.not.i.i, label %_ZNSt12__shared_ptrIN6open3d4core9TensorKey4ImplELN9__gnu_cxx12_Lock_policyE2EED2Ev.exit, label %12

12:                                               ; preds = %10
  %13 = getelementptr inbounds nuw i8, ptr %11, i64 8
  %14 = load atomic i64, ptr %13 acquire, align 8
  %15 = icmp eq i64 %14, 4294967297
  %16 = trunc i64 %14 to i32
  br i1 %15, label %17, label %25

17:                                               ; preds = %12
  store i32 0, ptr %13, align 8, !tbaa !24
  %18 = getelementptr inbounds nuw i8, ptr %11, i64 12
  store i32 0, ptr %18, align 4, !tbaa !26
  %19 = load ptr, ptr %11, align 8, !tbaa !19
  %20 = getelementptr inbounds nuw i8, ptr %19, i64 16
  %21 = load ptr, ptr %20, align 8
  call void %21(ptr noundef nonnull align 8 dereferenceable(16) %11) #21
  %22 = load ptr, ptr %11, align 8, !tbaa !19
  %23 = getelementptr inbounds nuw i8, ptr %22, i64 24
  %24 = load ptr, ptr %23, align 8
  call void %24(ptr noundef nonnull align 8 dereferenceable(16) %11) #21
  br label %_ZNSt12__shared_ptrIN6open3d4core9TensorKey4ImplELN9__gnu_cxx12_Lock_policyE2EED2Ev.exit

25:                                               ; preds = %12
  %26 = load i8, ptr @__libc_single_threaded, align 1, !tbaa !13
  %.not.i.i.i = icmp eq i8 %26, 0
  br i1 %.not.i.i.i, label %29, label %27

27:                                               ; preds = %25
  %28 = add nsw i32 %16, -1
  store i32 %28, ptr %13, align 4, !tbaa !14
  br label %_ZN9__gnu_cxx27__exchange_and_add_dispatchEPii.exit.i.i.i

29:                                               ; preds = %25
  %30 = atomicrmw volatile add ptr %13, i32 -1 acq_rel, align 4
  br label %_ZN9__gnu_cxx27__exchange_and_add_dispatchEPii.exit.i.i.i

_ZN9__gnu_cxx27__exchange_and_add_dispatchEPii.exit.i.i.i: ; preds = %29, %27
  %.0.i.i.i.i = phi i32 [ %16, %27 ], [ %30, %29 ]
  %31 = icmp eq i32 %.0.i.i.i.i, 1
  br i1 %31, label %32, label %_ZNSt12__shared_ptrIN6open3d4core9TensorKey4ImplELN9__gnu_cxx12_Lock_policyE2EED2Ev.exit, !prof !33

32:                                               ; preds = %_ZN9__gnu_cxx27__exchange_and_add_dispatchEPii.exit.i.i.i
  call void @_ZNSt16_Sp_counted_baseILN9__gnu_cxx12_Lock_policyE2EE24_M_release_last_use_coldEv(ptr noundef nonnull align 8 dereferenceable(16) %11) #21
  br label %_ZNSt12__shared_ptrIN6open3d4core9TensorKey4ImplELN9__gnu_cxx12_Lock_policyE2EED2Ev.exit

_ZNSt12__shared_ptrIN6open3d4core9TensorKey4ImplELN9__gnu_cxx12_Lock_policyE2EED2Ev.exit: ; preds = %10, %17, %_ZN9__gnu_cxx27__exchange_and_add_dispatchEPii.exit.i.i.i, %32
  %33 = load ptr, ptr %6, align 8, !tbaa !12
  %.not.i.i2 = icmp eq ptr %33, null
  br i1 %.not.i.i2, label %_ZNSt12__shared_ptrIN6open3d4core9TensorKey15IndexTensorImplELN9__gnu_cxx12_Lock_policyE2EED2Ev.exit, label %34

34:                                               ; preds = %_ZNSt12__shared_ptrIN6open3d4core9TensorKey4ImplELN9__gnu_cxx12_Lock_policyE2EED2Ev.exit
  %35 = getelementptr inbounds nuw i8, ptr %33, i64 8
  %36 = load atomic i64, ptr %35 acquire, align 8
  %37 = icmp eq i64 %36, 4294967297
  %38 = trunc i64 %36 to i32
  br i1 %37, label %39, label %47

39:                                               ; preds = %34
  store i32 0, ptr %35, align 8, !tbaa !24
  %40 = getelementptr inbounds nuw i8, ptr %33, i64 12
  store i32 0, ptr %40, align 4, !tbaa !26
  %41 = load ptr, ptr %33, align 8, !tbaa !19
  %42 = getelementptr inbounds nuw i8, ptr %41, i64 16
  %43 = load ptr, ptr %42, align 8
  call void %43(ptr noundef nonnull align 8 dereferenceable(16) %33) #21
  %44 = load ptr, ptr %33, align 8, !tbaa !19
  %45 = getelementptr inbounds nuw i8, ptr %44, i64 24
  %46 = load ptr, ptr %45, align 8
  call void %46(ptr noundef nonnull align 8 dereferenceable(16) %33) #21
  br label %_ZNSt12__shared_ptrIN6open3d4core9TensorKey15IndexTensorImplELN9__gnu_cxx12_Lock_policyE2EED2Ev.exit

47:                                               ; preds = %34
  %48 = load i8, ptr @__libc_single_threaded, align 1, !tbaa !13
  %.not.i.i.i3 = icmp eq i8 %48, 0
  br i1 %.not.i.i.i3, label %51, label %49

49:                                               ; preds = %47
  %50 = add nsw i32 %38, -1
  store i32 %50, ptr %35, align 4, !tbaa !14
  br label %_ZN9__gnu_cxx27__exchange_and_add_dispatchEPii.exit.i.i.i4

51:                                               ; preds = %47
  %52 = atomicrmw volatile add ptr %35, i32 -1 acq_rel, align 4
  br label %_ZN9__gnu_cxx27__exchange_and_add_dispatchEPii.exit.i.i.i4

_ZN9__gnu_cxx27__exchange_and_add_dispatchEPii.exit.i.i.i4: ; preds = %51, %49
  %.0.i.i.i.i5 = phi i32 [ %38, %49 ], [ %52, %51 ]
  %53 = icmp eq i32 %.0.i.i.i.i5, 1
  br i1 %53, label %54, label %_ZNSt12__shared_ptrIN6open3d4core9TensorKey15IndexTensorImplELN9__gnu_cxx12_Lock_policyE2EED2Ev.exit, !prof !33

54:                                               ; preds = %_ZN9__gnu_cxx27__exchange_and_add_dispatchEPii.exit.i.i.i4
  call void @_ZNSt16_Sp_counted_baseILN9__gnu_cxx12_Lock_policyE2EE24_M_release_last_use_coldEv(ptr noundef nonnull align 8 dereferenceable(16) %33) #21
  br label %_ZNSt12__shared_ptrIN6open3d4core9TensorKey15IndexTensorImplELN9__gnu_cxx12_Lock_policyE2EED2Ev.exit

_ZNSt12__shared_ptrIN6open3d4core9TensorKey15IndexTensorImplELN9__gnu_cxx12_Lock_policyE2EED2Ev.exit: ; preds = %_ZNSt12__shared_ptrIN6open3d4core9TensorKey4ImplELN9__gnu_cxx12_Lock_policyE2EED2Ev.exit, %39, %_ZN9__gnu_cxx27__exchange_and_add_dispatchEPii.exit.i.i.i4, %54
  call void @llvm.lifetime.end.p0(i64 16, ptr nonnull %5) #21
  call void @llvm.lifetime.end.p0(i64 16, ptr nonnull %4) #21
  ret void

55:                                               ; preds = %2
  %56 = landingpad { ptr, i32 }
          cleanup
  call void @_ZNSt12__shared_ptrIN6open3d4core9TensorKey4ImplELN9__gnu_cxx12_Lock_policyE2EED2Ev(ptr noundef nonnull align 8 dereferenceable(16) %4) #21
  call void @_ZNSt12__shared_ptrIN6open3d4core9TensorKey15IndexTensorImplELN9__gnu_cxx12_Lock_policyE2EED2Ev(ptr noundef nonnull align 8 dereferenceable(16) %5) #21
  call void @llvm.lifetime.end.p0(i64 16, ptr nonnull %5) #21
  call void @llvm.lifetime.end.p0(i64 16, ptr nonnull %4) #21
  resume { ptr, i32 } %56
}